target datalayout = "e-m:e-p270:32:32-p271:32:32-p272:64:64-i64:64-i128:128-f80:128-n8:16:32:64-S128"
target triple = "x86_64-unknown-linux-gnu"

%"struct.arrow::compute::RowTableMetadata" = type { i8, i32, i32, i32, i32, i32, %"class.std::vector", %"class.std::vector.0", %"class.std::vector.0", %"class.std::vector.0" }
%"class.std::vector" = type { %"struct.std::_Vector_base" }
%"struct.std::_Vector_base" = type { %"struct.std::_Vector_base<arrow::compute::KeyColumnMetadata, std::allocator<arrow::compute::KeyColumnMetadata>>::_Vector_impl" }
%"struct.std::_Vector_base<arrow::compute::KeyColumnMetadata, std::allocator<arrow::compute::KeyColumnMetadata>>::_Vector_impl" = type { %"struct.std::_Vector_base<arrow::compute::KeyColumnMetadata, std::allocator<arrow::compute::KeyColumnMetadata>>::_Vector_impl_data" }
%"struct.std::_Vector_base<arrow::compute::KeyColumnMetadata, std::allocator<arrow::compute::KeyColumnMetadata>>::_Vector_impl_data" = type { ptr, ptr, ptr }
%"class.std::vector.0" = type { %"struct.std::_Vector_base.1" }
%"struct.std::_Vector_base.1" = type { %"struct.std::_Vector_base<unsigned int, std::allocator<unsigned int>>::_Vector_impl" }
%"struct.std::_Vector_base<unsigned int, std::allocator<unsigned int>>::_Vector_impl" = type { %"struct.std::_Vector_base<unsigned int, std::allocator<unsigned int>>::_Vector_impl_data" }
%"struct.std::_Vector_base<unsigned int, std::allocator<unsigned int>>::_Vector_impl_data" = type { ptr, ptr, ptr }
%"class.arrow::compute::RowTableImpl" = type <{ ptr, %"struct.arrow::compute::RowTableMetadata", %"class.std::unique_ptr", %"class.std::unique_ptr", %"class.std::unique_ptr", [3 x ptr], i64, i64, i64, i64, i8, [7 x i8] }>
%"class.std::unique_ptr" = type { %"struct.std::__uniq_ptr_data" }
%"struct.std::__uniq_ptr_data" = type { %"class.std::__uniq_ptr_impl" }
%"class.std::__uniq_ptr_impl" = type { %"class.std::tuple" }
%"class.std::tuple" = type { %"struct.std::_Tuple_impl" }
%"struct.std::_Tuple_impl" = type { %"struct.std::_Head_base.7" }
%"struct.std::_Head_base.7" = type { ptr }
%"class.arrow::Buffer" = type { ptr, i8, i8, ptr, i64, i64, i8, %"class.std::shared_ptr", %"class.std::shared_ptr.10" }
%"class.std::shared_ptr" = type { %"class.std::__shared_ptr" }
%"class.std::__shared_ptr" = type { ptr, %"class.std::__shared_count" }
%"class.std::__shared_count" = type { ptr }
%"class.std::shared_ptr.10" = type { %"class.std::__shared_ptr.11" }
%"class.std::__shared_ptr.11" = type { ptr, %"class.std::__shared_count" }

; Function Attrs: mustprogress nounwind uwtable
define linkonce_odr noundef nonnull align 8 dereferenceable(8) ptr @_ZNSt10_Head_baseILm0EPN5arrow15ResizableBufferELb0EE7_M_headERKS3_(ptr noundef nonnull align 8 dereferenceable(8) %__b) #0 comdat align 2 {
entry:
  %__b.addr = alloca ptr, align 8
  store ptr %__b, ptr %__b.addr, align 8
  %0 = load ptr, ptr %__b.addr, align 8
  %_M_head_impl = getelementptr inbounds %"struct.std::_Head_base.7", ptr %0, i32 0, i32 0
  ret ptr %_M_head_impl
}

; Function Attrs: mustprogress nounwind uwtable
define linkonce_odr noundef nonnull align 8 dereferenceable(8) ptr @_ZNSt11_Tuple_implILm0EJPN5arrow15ResizableBufferESt14default_deleteIS1_EEE7_M_headERKS5_(ptr noundef nonnull align 8 dereferenceable(8) %__t) #0 comdat align 2 {
entry:
  %__t.addr = alloca ptr, align 8
  store ptr %__t, ptr %__t.addr, align 8
  %0 = load ptr, ptr %__t.addr, align 8
  %call = call noundef nonnull align 8 dereferenceable(8) ptr @_ZNSt10_Head_baseILm0EPN5arrow15ResizableBufferELb0EE7_M_headERKS3_(ptr noundef nonnull align 8 dereferenceable(8) %0) #12
  ret ptr %call
}

; Function Attrs: mustprogress nounwind uwtable
define linkonce_odr noundef nonnull align 8 dereferenceable(8) ptr @_ZSt12__get_helperILm0EPN5arrow15ResizableBufferEJSt14default_deleteIS1_EEERKT0_RKSt11_Tuple_implIXT_EJS5_DpT1_EE(ptr noundef nonnull align 8 dereferenceable(8) %__t) #0 comdat {
entry:
  %__t.addr = alloca ptr, align 8
  store ptr %__t, ptr %__t.addr, align 8
  %0 = load ptr, ptr %__t.addr, align 8
  %call = call noundef nonnull align 8 dereferenceable(8) ptr @_ZNSt11_Tuple_implILm0EJPN5arrow15ResizableBufferESt14default_deleteIS1_EEE7_M_headERKS5_(ptr noundef nonnull align 8 dereferenceable(8) %0) #12
  ret ptr %call
}

; Function Attrs: mustprogress nounwind uwtable
define linkonce_odr noundef nonnull align 8 dereferenceable(8) ptr @_ZSt3getILm0EJPN5arrow15ResizableBufferESt14default_deleteIS1_EEERKNSt13tuple_elementIXT_ESt5tupleIJDpT0_EEE4typeERKS9_(ptr noundef nonnull align 8 dereferenceable(8) %__t) #0 comdat {
entry:
  %__t.addr = alloca ptr, align 8
  store ptr %__t, ptr %__t.addr, align 8
  %0 = load ptr, ptr %__t.addr, align 8
  %call = call noundef nonnull align 8 dereferenceable(8) ptr @_ZSt12__get_helperILm0EPN5arrow15ResizableBufferEJSt14default_deleteIS1_EEERKT0_RKSt11_Tuple_implIXT_EJS5_DpT1_EE(ptr noundef nonnull align 8 dereferenceable(8) %0) #12
  ret ptr %call
}

; Function Attrs: mustprogress nounwind uwtable
define linkonce_odr noundef ptr @_ZNKSt15__uniq_ptr_implIN5arrow15ResizableBufferESt14default_deleteIS1_EE6_M_ptrEv(ptr noundef nonnull align 8 dereferenceable(8) %this) #0 comdat align 2 {
entry:
  %this.addr = alloca ptr, align 8
  store ptr %this, ptr %this.addr, align 8
  %this1 = load ptr, ptr %this.addr, align 8
  %_M_t = getelementptr inbounds %"class.std::__uniq_ptr_impl", ptr %this1, i32 0, i32 0
  %call = call noundef nonnull align 8 dereferenceable(8) ptr @_ZSt3getILm0EJPN5arrow15ResizableBufferESt14default_deleteIS1_EEERKNSt13tuple_elementIXT_ESt5tupleIJDpT0_EEE4typeERKS9_(ptr noundef nonnull align 8 dereferenceable(8) %_M_t) #12
  %0 = load ptr, ptr %call, align 8
  ret ptr %0
}

; Function Attrs: mustprogress nounwind uwtable
define linkonce_odr noundef ptr @_ZNKSt10unique_ptrIN5arrow15ResizableBufferESt14default_deleteIS1_EE3getEv(ptr noundef nonnull align 8 dereferenceable(8) %this) #0 comdat align 2 {
entry:
  %this.addr = alloca ptr, align 8
  store ptr %this, ptr %this.addr, align 8
  %this1 = load ptr, ptr %this.addr, align 8
  %_M_t = getelementptr inbounds %"class.std::unique_ptr", ptr %this1, i32 0, i32 0
  %call = call noundef ptr @_ZNKSt15__uniq_ptr_implIN5arrow15ResizableBufferESt14default_deleteIS1_EE6_M_ptrEv(ptr noundef nonnull align 8 dereferenceable(8) %_M_t) #12
  ret ptr %call
}

; Function Attrs: mustprogress nounwind uwtable
define linkonce_odr noundef ptr @_ZN5arrow6Buffer12mutable_dataEv(ptr noundef nonnull align 8 dereferenceable(80) %this) #0 comdat align 2 {
entry:
  %this.addr = alloca ptr, align 8
  store ptr %this, ptr %this.addr, align 8
  %this1 = load ptr, ptr %this.addr, align 8
  %is_cpu_ = getelementptr inbounds %"class.arrow::Buffer", ptr %this1, i32 0, i32 2
  %0 = load i8, ptr %is_cpu_, align 1
  %tobool = trunc i8 %0 to i1
  br i1 %tobool, label %land.rhs, label %land.end

land.rhs:                                         ; preds = %entry
  %is_mutable_ = getelementptr inbounds %"class.arrow::Buffer", ptr %this1, i32 0, i32 1
  %1 = load i8, ptr %is_mutable_, align 8
  %tobool2 = trunc i8 %1 to i1
  br label %land.end

land.end:                                         ; preds = %land.rhs, %entry
  %2 = phi i1 [ false, %entry ], [ %tobool2, %land.rhs ]
  %lnot = xor i1 %2, true
  %lnot3 = xor i1 %lnot, true
  br i1 %lnot3, label %cond.true, label %cond.false

cond.true:                                        ; preds = %land.end
  %data_ = getelementptr inbounds %"class.arrow::Buffer", ptr %this1, i32 0, i32 3
  %3 = load ptr, ptr %data_, align 8
  br label %cond.end

cond.false:                                       ; preds = %land.end
  br label %cond.end

cond.end:                                         ; preds = %cond.false, %cond.true
  %cond = phi ptr [ %3, %cond.true ], [ null, %cond.false ]
  ret ptr %cond
}

; Function Attrs: mustprogress nounwind uwtable
define linkonce_odr noundef ptr @_ZNKSt10unique_ptrIN5arrow15ResizableBufferESt14default_deleteIS1_EEptEv(ptr noundef nonnull align 8 dereferenceable(8) %this) #0 comdat align 2 {
entry:
  %this.addr = alloca ptr, align 8
  store ptr %this, ptr %this.addr, align 8
  %this1 = load ptr, ptr %this.addr, align 8
  %call = call noundef ptr @_ZNKSt10unique_ptrIN5arrow15ResizableBufferESt14default_deleteIS1_EE3getEv(ptr noundef nonnull align 8 dereferenceable(8) %this1) #12
  ret ptr %call
}

; Function Attrs: mustprogress uwtable
define void @_ZN5arrow7compute12RowTableImpl20UpdateBufferPointersEv(ptr noundef nonnull align 8 dereferenceable(209) %this) #2 align 2 {
entry:
  %this.addr = alloca ptr, align 8
  store ptr %this, ptr %this.addr, align 8
  %this1 = load ptr, ptr %this.addr, align 8
  %null_masks_ = getelementptr inbounds %"class.arrow::compute::RowTableImpl", ptr %this1, i32 0, i32 2
  %call = call noundef ptr @_ZNKSt10unique_ptrIN5arrow15ResizableBufferESt14default_deleteIS1_EEptEv(ptr noundef nonnull align 8 dereferenceable(8) %null_masks_) #12
  %call2 = call noundef ptr @_ZN5arrow6Buffer12mutable_dataEv(ptr noundef nonnull align 8 dereferenceable(80) %call)
  %buffers_ = getelementptr inbounds %"class.arrow::compute::RowTableImpl", ptr %this1, i32 0, i32 5
  %arrayidx = getelementptr inbounds [3 x ptr], ptr %buffers_, i64 0, i64 0
  store ptr %call2, ptr %arrayidx, align 8
  %metadata_ = getelementptr inbounds %"class.arrow::compute::RowTableImpl", ptr %this1, i32 0, i32 1
  %is_fixed_length = getelementptr inbounds %"struct.arrow::compute::RowTableMetadata", ptr %metadata_, i32 0, i32 0
  %0 = load i8, ptr %is_fixed_length, align 8
  %tobool = trunc i8 %0 to i1
  br i1 %tobool, label %if.then, label %if.else

if.then:                                          ; preds = %entry
  %rows_ = getelementptr inbounds %"class.arrow::compute::RowTableImpl", ptr %this1, i32 0, i32 4
  %call3 = call noundef ptr @_ZNKSt10unique_ptrIN5arrow15ResizableBufferESt14default_deleteIS1_EEptEv(ptr noundef nonnull align 8 dereferenceable(8) %rows_) #12
  %call4 = call noundef ptr @_ZN5arrow6Buffer12mutable_dataEv(ptr noundef nonnull align 8 dereferenceable(80) %call3)
  %buffers_5 = getelementptr inbounds %"class.arrow::compute::RowTableImpl", ptr %this1, i32 0, i32 5
  %arrayidx6 = getelementptr inbounds [3 x ptr], ptr %buffers_5, i64 0, i64 1
  store ptr %call4, ptr %arrayidx6, align 8
  %buffers_7 = getelementptr inbounds %"class.arrow::compute::RowTableImpl", ptr %this1, i32 0, i32 5
  %arrayidx8 = getelementptr inbounds [3 x ptr], ptr %buffers_7, i64 0, i64 2
  store ptr null, ptr %arrayidx8, align 8
  br label %if.end

if.else:                                          ; preds = %entry
  %offsets_ = getelementptr inbounds %"class.arrow::compute::RowTableImpl", ptr %this1, i32 0, i32 3
  %call9 = call noundef ptr @_ZNKSt10unique_ptrIN5arrow15ResizableBufferESt14default_deleteIS1_EEptEv(ptr noundef nonnull align 8 dereferenceable(8) %offsets_) #12
  %call10 = call noundef ptr @_ZN5arrow6Buffer12mutable_dataEv(ptr noundef nonnull align 8 dereferenceable(80) %call9)
  %buffers_11 = getelementptr inbounds %"class.arrow::compute::RowTableImpl", ptr %this1, i32 0, i32 5
  %arrayidx12 = getelementptr inbounds [3 x ptr], ptr %buffers_11, i64 0, i64 1
  store ptr %call10, ptr %arrayidx12, align 8
  %rows_13 = getelementptr inbounds %"class.arrow::compute::RowTableImpl", ptr %this1, i32 0, i32 4
  %call14 = call noundef ptr @_ZNKSt10unique_ptrIN5arrow15ResizableBufferESt14default_deleteIS1_EEptEv(ptr noundef nonnull align 8 dereferenceable(8) %rows_13) #12
  %call15 = call noundef ptr @_ZN5arrow6Buffer12mutable_dataEv(ptr noundef nonnull align 8 dereferenceable(80) %call14)
  %buffers_16 = getelementptr inbounds %"class.arrow::compute::RowTableImpl", ptr %this1, i32 0, i32 5
  %arrayidx17 = getelementptr inbounds [3 x ptr], ptr %buffers_16, i64 0, i64 2
  store ptr %call15, ptr %arrayidx17, align 8
  br label %if.end

if.end:                                           ; preds = %if.else, %if.then
  ret void
}