; Function Attrs: mustprogress nofree norecurse nosync nounwind willreturn memory(read, argmem: readwrite, inaccessiblemem: none) uwtable
define void @_ZN5arrow7compute12RowTableImpl20UpdateBufferPointersEv(ptr noundef nonnull align 8 captures(none) dereferenceable(209) initializes((152, 176)) %this) local_unnamed_addr #9 align 2 {
entry:
  %null_masks_ = getelementptr inbounds nuw i8, ptr %this, i64 128
  %0 = load ptr, ptr %null_masks_, align 8
  %is_cpu_.i = getelementptr inbounds nuw i8, ptr %0, i64 9
  %1 = load i8, ptr %is_cpu_.i, align 1
  %tobool.i = trunc i8 %1 to i1
  %is_mutable_.i = getelementptr inbounds nuw i8, ptr %0, i64 8
  %2 = load i8, ptr %is_mutable_.i, align 8
  %tobool2.i = trunc i8 %2 to i1
  %3 = select i1 %tobool.i, i1 %tobool2.i, i1 false
  %data_.i = getelementptr inbounds nuw i8, ptr %0, i64 16
  %4 = load ptr, ptr %data_.i, align 8
  %cond.i = select i1 %3, ptr %4, ptr null
  %buffers_ = getelementptr inbounds nuw i8, ptr %this, i64 152
  store ptr %cond.i, ptr %buffers_, align 8
  %metadata_ = getelementptr inbounds nuw i8, ptr %this, i64 8
  %5 = load i8, ptr %metadata_, align 8
  %tobool = trunc i8 %5 to i1
  %arrayidx6 = getelementptr inbounds nuw i8, ptr %this, i64 160
  br i1 %tobool, label %if.then, label %if.else

if.then:                                          ; preds = %entry
  %rows_ = getelementptr inbounds nuw i8, ptr %this, i64 144
  %6 = load ptr, ptr %rows_, align 8
  %is_cpu_.i1 = getelementptr inbounds nuw i8, ptr %6, i64 9
  %7 = load i8, ptr %is_cpu_.i1, align 1
  %tobool.i2 = trunc i8 %7 to i1
  %is_mutable_.i3 = getelementptr inbounds nuw i8, ptr %6, i64 8
  %8 = load i8, ptr %is_mutable_.i3, align 8
  %tobool2.i4 = trunc i8 %8 to i1
  %9 = select i1 %tobool.i2, i1 %tobool2.i4, i1 false
  %data_.i5 = getelementptr inbounds nuw i8, ptr %6, i64 16
  %10 = load ptr, ptr %data_.i5, align 8
  %cond.i6 = select i1 %9, ptr %10, ptr null
  store ptr %cond.i6, ptr %arrayidx6, align 8
  br label %if.end

if.else:                                          ; preds = %entry
  %offsets_ = getelementptr inbounds nuw i8, ptr %this, i64 136
  %11 = load ptr, ptr %offsets_, align 8
  %is_cpu_.i7 = getelementptr inbounds nuw i8, ptr %11, i64 9
  %12 = load i8, ptr %is_cpu_.i7, align 1
  %tobool.i8 = trunc i8 %12 to i1
  %is_mutable_.i9 = getelementptr inbounds nuw i8, ptr %11, i64 8
  %13 = load i8, ptr %is_mutable_.i9, align 8
  %tobool2.i10 = trunc i8 %13 to i1
  %14 = select i1 %tobool.i8, i1 %tobool2.i10, i1 false
  %data_.i11 = getelementptr inbounds nuw i8, ptr %11, i64 16
  %15 = load ptr, ptr %data_.i11, align 8
  %cond.i12 = select i1 %14, ptr %15, ptr null
  store ptr %cond.i12, ptr %arrayidx6, align 8
  %rows_13 = getelementptr inbounds nuw i8, ptr %this, i64 144
  %16 = load ptr, ptr %rows_13, align 8
  %is_cpu_.i13 = getelementptr inbounds nuw i8, ptr %16, i64 9
  %17 = load i8, ptr %is_cpu_.i13, align 1
  %tobool.i14 = trunc i8 %17 to i1
  %is_mutable_.i15 = getelementptr inbounds nuw i8, ptr %16, i64 8
  %18 = load i8, ptr %is_mutable_.i15, align 8
  %tobool2.i16 = trunc i8 %18 to i1
  %19 = select i1 %tobool.i14, i1 %tobool2.i16, i1 false
  %data_.i17 = getelementptr inbounds nuw i8, ptr %16, i64 16
  %20 = load ptr, ptr %data_.i17, align 8
  %cond.i18 = select i1 %19, ptr %20, ptr null
  br label %if.end

if.end:                                           ; preds = %if.else, %if.then
  %cond.i18.sink = phi ptr [ null, %if.then ], [ %cond.i18, %if.else ]
  %21 = getelementptr inbounds nuw i8, ptr %this, i64 168
  store ptr %cond.i18.sink, ptr %21, align 8
  ret void
}